; Function Attrs: nounwind sspstrong uwtable
define internal i64 @wmap_size(i64 noundef %0) #0 {
  %2 = tail call ptr @rb_check_typeddata(i64 noundef %0, ptr noundef nonnull @weakmap_type) #10
  %3 = load ptr, ptr %2, align 8, !tbaa !17
  %4 = tail call i64 @rb_st_table_size(ptr noundef %3) #10
  %5 = icmp ult i64 %4, 4611686018427387904
  br i1 %5, label %6, label %9

6:                                                ; preds = %1
  %7 = shl nuw nsw i64 %4, 1
  %8 = or disjoint i64 %7, 1
  br label %rb_ulong2num_inline.exit

9:                                                ; preds = %1
  %10 = tail call i64 @rb_uint2big(i64 noundef %4) #10
  br label %rb_ulong2num_inline.exit

rb_ulong2num_inline.exit:                         ; preds = %6, %9
  %.0.i = phi i64 [ %8, %6 ], [ %10, %9 ]
  ret i64 %.0.i
}